target datalayout = "e-m:e-p270:32:32-p271:32:32-p272:64:64-i64:64-i128:128-f80:128-n8:16:32:64-S128"
target triple = "x86_64-pc-linux-gnu"

%struct.GeneratorExpressionContent = type { %struct.cmGeneratorExpressionEvaluator, %"class.std::vector", %"class.std::vector.3", ptr, i64 }
%struct.cmGeneratorExpressionEvaluator = type { ptr }
%"class.std::vector" = type { %"struct.std::_Vector_base" }
%"struct.std::_Vector_base" = type { %"struct.std::_Vector_base<std::unique_ptr<cmGeneratorExpressionEvaluator>, std::allocator<std::unique_ptr<cmGeneratorExpressionEvaluator>>>::_Vector_impl" }
%"struct.std::_Vector_base<std::unique_ptr<cmGeneratorExpressionEvaluator>, std::allocator<std::unique_ptr<cmGeneratorExpressionEvaluator>>>::_Vector_impl" = type { %"struct.std::_Vector_base<std::unique_ptr<cmGeneratorExpressionEvaluator>, std::allocator<std::unique_ptr<cmGeneratorExpressionEvaluator>>>::_Vector_impl_data" }
%"struct.std::_Vector_base<std::unique_ptr<cmGeneratorExpressionEvaluator>, std::allocator<std::unique_ptr<cmGeneratorExpressionEvaluator>>>::_Vector_impl_data" = type { ptr, ptr, ptr }
%"class.std::vector.3" = type { %"struct.std::_Vector_base.4" }
%"struct.std::_Vector_base.4" = type { %"struct.std::_Vector_base<std::vector<std::unique_ptr<cmGeneratorExpressionEvaluator>>, std::allocator<std::vector<std::unique_ptr<cmGeneratorExpressionEvaluator>>>>::_Vector_impl" }
%"struct.std::_Vector_base<std::vector<std::unique_ptr<cmGeneratorExpressionEvaluator>>, std::allocator<std::vector<std::unique_ptr<cmGeneratorExpressionEvaluator>>>>::_Vector_impl" = type { %"struct.std::_Vector_base<std::vector<std::unique_ptr<cmGeneratorExpressionEvaluator>>, std::allocator<std::vector<std::unique_ptr<cmGeneratorExpressionEvaluator>>>>::_Vector_impl_data" }
%"struct.std::_Vector_base<std::vector<std::unique_ptr<cmGeneratorExpressionEvaluator>>, std::allocator<std::vector<std::unique_ptr<cmGeneratorExpressionEvaluator>>>>::_Vector_impl_data" = type { ptr, ptr, ptr }

; Function Attrs: mustprogress nounwind uwtable
define linkonce_odr dso_local void @_ZNSt15__new_allocatorISt6vectorISt10unique_ptrI30cmGeneratorExpressionEvaluatorSt14default_deleteIS2_EESaIS5_EEEC2Ev(ptr noundef nonnull align 1 dereferenceable(1) %0) unnamed_addr #4 comdat align 2 {
  %2 = alloca ptr, align 8
  store ptr %0, ptr %2, align 8
  ret void
}

; Function Attrs: mustprogress nounwind uwtable
define linkonce_odr dso_local void @_ZNSt15__new_allocatorISt10unique_ptrI30cmGeneratorExpressionEvaluatorSt14default_deleteIS1_EEEC2Ev(ptr noundef nonnull align 1 dereferenceable(1) %0) unnamed_addr #4 comdat align 2 {
  %2 = alloca ptr, align 8
  store ptr %0, ptr %2, align 8
  ret void
}

; Function Attrs: mustprogress nounwind uwtable
define linkonce_odr dso_local void @_ZNSt12_Vector_baseISt6vectorISt10unique_ptrI30cmGeneratorExpressionEvaluatorSt14default_deleteIS2_EESaIS5_EESaIS7_EE17_Vector_impl_dataC2Ev(ptr noundef nonnull align 8 dereferenceable(24) %0) unnamed_addr #4 comdat align 2 {
  %2 = alloca ptr, align 8
  store ptr %0, ptr %2, align 8
  %3 = load ptr, ptr %2, align 8
  %4 = getelementptr inbounds %"struct.std::_Vector_base<std::vector<std::unique_ptr<cmGeneratorExpressionEvaluator>>, std::allocator<std::vector<std::unique_ptr<cmGeneratorExpressionEvaluator>>>>::_Vector_impl_data", ptr %3, i32 0, i32 0
  store ptr null, ptr %4, align 8
  %5 = getelementptr inbounds %"struct.std::_Vector_base<std::vector<std::unique_ptr<cmGeneratorExpressionEvaluator>>, std::allocator<std::vector<std::unique_ptr<cmGeneratorExpressionEvaluator>>>>::_Vector_impl_data", ptr %3, i32 0, i32 1
  store ptr null, ptr %5, align 8
  %6 = getelementptr inbounds %"struct.std::_Vector_base<std::vector<std::unique_ptr<cmGeneratorExpressionEvaluator>>, std::allocator<std::vector<std::unique_ptr<cmGeneratorExpressionEvaluator>>>>::_Vector_impl_data", ptr %3, i32 0, i32 2
  store ptr null, ptr %6, align 8
  ret void
}

; Function Attrs: mustprogress nounwind uwtable
define linkonce_odr dso_local void @_ZNSaISt6vectorISt10unique_ptrI30cmGeneratorExpressionEvaluatorSt14default_deleteIS1_EESaIS4_EEEC2Ev(ptr noundef nonnull align 1 dereferenceable(1) %0) unnamed_addr #4 comdat align 2 {
  %2 = alloca ptr, align 8
  store ptr %0, ptr %2, align 8
  %3 = load ptr, ptr %2, align 8
  call void @_ZNSt15__new_allocatorISt6vectorISt10unique_ptrI30cmGeneratorExpressionEvaluatorSt14default_deleteIS2_EESaIS5_EEEC2Ev(ptr noundef nonnull align 1 dereferenceable(1) %3) #3
  ret void
}

; Function Attrs: mustprogress nounwind uwtable
define linkonce_odr dso_local void @_ZNSt12_Vector_baseISt10unique_ptrI30cmGeneratorExpressionEvaluatorSt14default_deleteIS1_EESaIS4_EE17_Vector_impl_dataC2Ev(ptr noundef nonnull align 8 dereferenceable(24) %0) unnamed_addr #4 comdat align 2 {
  %2 = alloca ptr, align 8
  store ptr %0, ptr %2, align 8
  %3 = load ptr, ptr %2, align 8
  %4 = getelementptr inbounds %"struct.std::_Vector_base<std::unique_ptr<cmGeneratorExpressionEvaluator>, std::allocator<std::unique_ptr<cmGeneratorExpressionEvaluator>>>::_Vector_impl_data", ptr %3, i32 0, i32 0
  store ptr null, ptr %4, align 8
  %5 = getelementptr inbounds %"struct.std::_Vector_base<std::unique_ptr<cmGeneratorExpressionEvaluator>, std::allocator<std::unique_ptr<cmGeneratorExpressionEvaluator>>>::_Vector_impl_data", ptr %3, i32 0, i32 1
  store ptr null, ptr %5, align 8
  %6 = getelementptr inbounds %"struct.std::_Vector_base<std::unique_ptr<cmGeneratorExpressionEvaluator>, std::allocator<std::unique_ptr<cmGeneratorExpressionEvaluator>>>::_Vector_impl_data", ptr %3, i32 0, i32 2
  store ptr null, ptr %6, align 8
  ret void
}

; Function Attrs: mustprogress nounwind uwtable
define linkonce_odr dso_local void @_ZNSaISt10unique_ptrI30cmGeneratorExpressionEvaluatorSt14default_deleteIS0_EEEC2Ev(ptr noundef nonnull align 1 dereferenceable(1) %0) unnamed_addr #4 comdat align 2 {
  %2 = alloca ptr, align 8
  store ptr %0, ptr %2, align 8
  %3 = load ptr, ptr %2, align 8
  call void @_ZNSt15__new_allocatorISt10unique_ptrI30cmGeneratorExpressionEvaluatorSt14default_deleteIS1_EEEC2Ev(ptr noundef nonnull align 1 dereferenceable(1) %3) #3
  ret void
}

; Function Attrs: mustprogress nounwind uwtable
define linkonce_odr dso_local void @_ZNSt12_Vector_baseISt6vectorISt10unique_ptrI30cmGeneratorExpressionEvaluatorSt14default_deleteIS2_EESaIS5_EESaIS7_EE12_Vector_implC2Ev(ptr noundef nonnull align 8 dereferenceable(24) %0) unnamed_addr #4 comdat align 2 {
  %2 = alloca ptr, align 8
  store ptr %0, ptr %2, align 8
  %3 = load ptr, ptr %2, align 8
  call void @_ZNSaISt6vectorISt10unique_ptrI30cmGeneratorExpressionEvaluatorSt14default_deleteIS1_EESaIS4_EEEC2Ev(ptr noundef nonnull align 1 dereferenceable(1) %3) #3
  call void @_ZNSt12_Vector_baseISt6vectorISt10unique_ptrI30cmGeneratorExpressionEvaluatorSt14default_deleteIS2_EESaIS5_EESaIS7_EE17_Vector_impl_dataC2Ev(ptr noundef nonnull align 8 dereferenceable(24) %3) #3
  ret void
}

; Function Attrs: mustprogress nounwind uwtable
define linkonce_odr dso_local void @_ZNSt12_Vector_baseISt10unique_ptrI30cmGeneratorExpressionEvaluatorSt14default_deleteIS1_EESaIS4_EE12_Vector_implC2Ev(ptr noundef nonnull align 8 dereferenceable(24) %0) unnamed_addr #4 comdat align 2 {
  %2 = alloca ptr, align 8
  store ptr %0, ptr %2, align 8
  %3 = load ptr, ptr %2, align 8
  call void @_ZNSaISt10unique_ptrI30cmGeneratorExpressionEvaluatorSt14default_deleteIS0_EEEC2Ev(ptr noundef nonnull align 1 dereferenceable(1) %3) #3
  call void @_ZNSt12_Vector_baseISt10unique_ptrI30cmGeneratorExpressionEvaluatorSt14default_deleteIS1_EESaIS4_EE17_Vector_impl_dataC2Ev(ptr noundef nonnull align 8 dereferenceable(24) %3) #3
  ret void
}

; Function Attrs: mustprogress nounwind uwtable
define linkonce_odr dso_local void @_ZNSt12_Vector_baseISt6vectorISt10unique_ptrI30cmGeneratorExpressionEvaluatorSt14default_deleteIS2_EESaIS5_EESaIS7_EEC2Ev(ptr noundef nonnull align 8 dereferenceable(24) %0) unnamed_addr #4 comdat align 2 {
  %2 = alloca ptr, align 8
  store ptr %0, ptr %2, align 8
  %3 = load ptr, ptr %2, align 8
  %4 = getelementptr inbounds %"struct.std::_Vector_base.4", ptr %3, i32 0, i32 0
  call void @_ZNSt12_Vector_baseISt6vectorISt10unique_ptrI30cmGeneratorExpressionEvaluatorSt14default_deleteIS2_EESaIS5_EESaIS7_EE12_Vector_implC2Ev(ptr noundef nonnull align 8 dereferenceable(24) %4) #3
  ret void
}

; Function Attrs: mustprogress nounwind uwtable
define linkonce_odr dso_local void @_ZNSt12_Vector_baseISt10unique_ptrI30cmGeneratorExpressionEvaluatorSt14default_deleteIS1_EESaIS4_EEC2Ev(ptr noundef nonnull align 8 dereferenceable(24) %0) unnamed_addr #4 comdat align 2 {
  %2 = alloca ptr, align 8
  store ptr %0, ptr %2, align 8
  %3 = load ptr, ptr %2, align 8
  %4 = getelementptr inbounds %"struct.std::_Vector_base", ptr %3, i32 0, i32 0
  call void @_ZNSt12_Vector_baseISt10unique_ptrI30cmGeneratorExpressionEvaluatorSt14default_deleteIS1_EESaIS4_EE12_Vector_implC2Ev(ptr noundef nonnull align 8 dereferenceable(24) %4) #3
  ret void
}

; Function Attrs: mustprogress nounwind uwtable
define linkonce_odr dso_local void @_ZNSt6vectorIS_ISt10unique_ptrI30cmGeneratorExpressionEvaluatorSt14default_deleteIS1_EESaIS4_EESaIS6_EEC2Ev(ptr noundef nonnull align 8 dereferenceable(24) %0) unnamed_addr #4 comdat align 2 {
  %2 = alloca ptr, align 8
  store ptr %0, ptr %2, align 8
  %3 = load ptr, ptr %2, align 8
  call void @_ZNSt12_Vector_baseISt6vectorISt10unique_ptrI30cmGeneratorExpressionEvaluatorSt14default_deleteIS2_EESaIS5_EESaIS7_EEC2Ev(ptr noundef nonnull align 8 dereferenceable(24) %3) #3
  ret void
}

; Function Attrs: mustprogress nounwind uwtable
define linkonce_odr dso_local void @_ZNSt6vectorISt10unique_ptrI30cmGeneratorExpressionEvaluatorSt14default_deleteIS1_EESaIS4_EEC2Ev(ptr noundef nonnull align 8 dereferenceable(24) %0) unnamed_addr #4 comdat align 2 {
  %2 = alloca ptr, align 8
  store ptr %0, ptr %2, align 8
  %3 = load ptr, ptr %2, align 8
  call void @_ZNSt12_Vector_baseISt10unique_ptrI30cmGeneratorExpressionEvaluatorSt14default_deleteIS1_EESaIS4_EEC2Ev(ptr noundef nonnull align 8 dereferenceable(24) %3) #3
  ret void
}

; Function Attrs: mustprogress nounwind uwtable
define linkonce_odr dso_local void @_ZN30cmGeneratorExpressionEvaluatorC2Ev(ptr noundef nonnull align 8 dereferenceable(8) %0) unnamed_addr #4 comdat align 2 {
  %2 = alloca ptr, align 8
  store ptr %0, ptr %2, align 8
  %3 = load ptr, ptr %2, align 8
  store ptr getelementptr inbounds ({ [6 x ptr] }, ptr @_ZTV30cmGeneratorExpressionEvaluator, i32 0, i32 0, i32 2), ptr %3, align 8
  ret void
}

; Function Attrs: mustprogress nounwind uwtable
define dso_local void @_ZN26GeneratorExpressionContentC2EPKcm(ptr noundef nonnull align 8 dereferenceable(72) %0, ptr noundef %1, i64 noundef %2) unnamed_addr #4 align 2 {
  %4 = alloca ptr, align 8
  %5 = alloca ptr, align 8
  %6 = alloca i64, align 8
  store ptr %0, ptr %4, align 8
  store ptr %1, ptr %5, align 8
  store i64 %2, ptr %6, align 8
  %7 = load ptr, ptr %4, align 8
  call void @_ZN30cmGeneratorExpressionEvaluatorC2Ev(ptr noundef nonnull align 8 dereferenceable(8) %7) #3
  store ptr getelementptr inbounds ({ [6 x ptr] }, ptr @_ZTV26GeneratorExpressionContent, i32 0, i32 0, i32 2), ptr %7, align 8
  %8 = getelementptr inbounds %struct.GeneratorExpressionContent, ptr %7, i32 0, i32 1
  call void @_ZNSt6vectorISt10unique_ptrI30cmGeneratorExpressionEvaluatorSt14default_deleteIS1_EESaIS4_EEC2Ev(ptr noundef nonnull align 8 dereferenceable(24) %8) #3
  %9 = getelementptr inbounds %struct.GeneratorExpressionContent, ptr %7, i32 0, i32 2
  call void @_ZNSt6vectorIS_ISt10unique_ptrI30cmGeneratorExpressionEvaluatorSt14default_deleteIS1_EESaIS4_EESaIS6_EEC2Ev(ptr noundef nonnull align 8 dereferenceable(24) %9) #3
  %10 = getelementptr inbounds %struct.GeneratorExpressionContent, ptr %7, i32 0, i32 3
  %11 = load ptr, ptr %5, align 8
  store ptr %11, ptr %10, align 8
  %12 = getelementptr inbounds %struct.GeneratorExpressionContent, ptr %7, i32 0, i32 4
  %13 = load i64, ptr %6, align 8
  store i64 %13, ptr %12, align 8
  ret void
}