; Function Attrs: mustprogress nofree norecurse nosync nounwind willreturn memory(argmem: write) uwtable
define dso_local void @_ZN26GeneratorExpressionContentC2EPKcm(ptr nocapture noundef nonnull writeonly align 8 dereferenceable(72) %0, ptr noundef %1, i64 noundef %2) unnamed_addr #3 align 2 {
  store ptr getelementptr inbounds ({ [6 x ptr] }, ptr @_ZTV26GeneratorExpressionContent, i64 0, i32 0, i64 2), ptr %0, align 8
  %4 = getelementptr inbounds i8, ptr %0, i64 8
  %5 = getelementptr inbounds i8, ptr %0, i64 56
  tail call void @llvm.memset.p0.i64(ptr noundef nonnull align 8 dereferenceable(48) %4, i8 0, i64 48, i1 false)
  store ptr %1, ptr %5, align 8
  %6 = getelementptr inbounds i8, ptr %0, i64 64
  store i64 %2, ptr %6, align 8
  ret void
}